; Function Attrs: mustprogress uwtable
define internal fastcc noundef nonnull ptr @_ZN32pxrInternal_v0_24__pxrReserved__L27_NewDemangledStringTypeNameB5cxx11Ev() unnamed_addr #0 personality ptr @__gxx_personality_v0 {
  %1 = alloca %"class.std::allocator", align 1
  %2 = tail call noalias noundef nonnull dereferenceable(32) ptr @_Znwm(i64 noundef 32) #17
  call void @_ZNSaIcEC1Ev(ptr noundef nonnull align 1 dereferenceable(1) %1) #14
  %3 = invoke noundef ptr @_ZNSt7__cxx1112basic_stringIcSt11char_traitsIcESaIcEE13_M_local_dataEv(ptr noundef nonnull align 8 dereferenceable(32) %2)
          to label %.noexc unwind label %7

.noexc:                                           ; preds = %0
  invoke void @_ZNSt7__cxx1112basic_stringIcSt11char_traitsIcESaIcEE12_Alloc_hiderC1EPcRKS3_(ptr noundef nonnull align 8 dereferenceable(32) %2, ptr noundef %3, ptr noundef nonnull align 1 dereferenceable(1) %1)
          to label %.noexc4 unwind label %7

.noexc4:                                          ; preds = %.noexc
  invoke void @_ZNSt7__cxx1112basic_stringIcSt11char_traitsIcESaIcEE12_M_constructIPKcEEvT_S8_St20forward_iterator_tag(ptr noundef nonnull align 8 dereferenceable(32) %2, ptr noundef nonnull @_ZTSNSt7__cxx1112basic_stringIcSt11char_traitsIcESaIcEEE, ptr noundef nonnull getelementptr inbounds nuw (i8, ptr @_ZTSNSt7__cxx1112basic_stringIcSt11char_traitsIcESaIcEEE, i64 52))
          to label %_ZNSt7__cxx1112basic_stringIcSt11char_traitsIcESaIcEEC2IS3_EEPKcRKS3_.exit unwind label %4

4:                                                ; preds = %.noexc4
  %5 = landingpad { ptr, i32 }
          cleanup
  call void @_ZNSaIcED2Ev(ptr noundef nonnull align 8 dereferenceable(32) %2) #14
  br label %.body

_ZNSt7__cxx1112basic_stringIcSt11char_traitsIcESaIcEEC2IS3_EEPKcRKS3_.exit: ; preds = %.noexc4
  call void @_ZNSaIcED1Ev(ptr noundef nonnull align 1 dereferenceable(1) %1) #14
  %6 = call fastcc noundef zeroext i1 @_ZN32pxrInternal_v0_24__pxrReserved__L15_DemangleNewRawEPNSt7__cxx1112basic_stringIcSt11char_traitsIcESaIcEEE(ptr noundef nonnull %2)
  ret ptr %2

7:                                                ; preds = %.noexc, %0
  %8 = landingpad { ptr, i32 }
          cleanup
  br label %.body

.body:                                            ; preds = %4, %7
  %eh.lpad-body = phi { ptr, i32 } [ %8, %7 ], [ %5, %4 ]
  call void @_ZNSaIcED1Ev(ptr noundef nonnull align 1 dereferenceable(1) %1) #14
  call void @_ZdlPvm(ptr noundef nonnull %2, i64 noundef 32) #18
  resume { ptr, i32 } %eh.lpad-body
}